target datalayout = "e-m:e-p270:32:32-p271:32:32-p272:64:64-i64:64-i128:128-f80:128-n8:16:32:64-S128"
target triple = "x86_64-pc-linux-gnu"

%struct.ssl_ecdh_method_st = type { i32, i16, [8 x i8], ptr, ptr, ptr }
%struct.ssl_ecdh_ctx_st = type { ptr, ptr }

; Function Attrs: nounwind uwtable
define internal i32 @ssl_ec_point_compute_secret(ptr noundef %0, ptr noundef %1, ptr noundef %2, ptr noundef %3, ptr noundef %4, i64 noundef %5) #0 {
  %7 = alloca i32, align 4
  %8 = alloca ptr, align 8
  %9 = alloca ptr, align 8
  %10 = alloca ptr, align 8
  %11 = alloca ptr, align 8
  %12 = alloca ptr, align 8
  %13 = alloca i64, align 8
  %14 = alloca ptr, align 8
  %15 = alloca ptr, align 8
  %16 = alloca i32, align 4
  %17 = alloca i32, align 4
  %18 = alloca ptr, align 8
  %19 = alloca ptr, align 8
  %20 = alloca ptr, align 8
  %21 = alloca ptr, align 8
  %22 = alloca ptr, align 8
  %23 = alloca i64, align 8
  store ptr %0, ptr %8, align 8, !tbaa !25
  store ptr %1, ptr %9, align 8, !tbaa !36
  store ptr %2, ptr %10, align 8, !tbaa !38
  store ptr %3, ptr %11, align 8, !tbaa !40
  store ptr %4, ptr %12, align 8, !tbaa !40
  store i64 %5, ptr %13, align 8, !tbaa !13
  call void @llvm.lifetime.start.p0(i64 8, ptr %14) #5
  %24 = load ptr, ptr %8, align 8, !tbaa !25
  %25 = getelementptr inbounds nuw %struct.ssl_ecdh_ctx_st, ptr %24, i32 0, i32 1
  %26 = load ptr, ptr %25, align 8, !tbaa !30
  store ptr %26, ptr %14, align 8, !tbaa !43
  %27 = load ptr, ptr %11, align 8, !tbaa !40
  store i8 80, ptr %27, align 1, !tbaa !52
  call void @llvm.lifetime.start.p0(i64 8, ptr %15) #5
  %28 = call ptr @BN_CTX_new()
  store ptr %28, ptr %15, align 8, !tbaa !45
  %29 = load ptr, ptr %15, align 8, !tbaa !45
  %30 = icmp eq ptr %29, null
  br i1 %30, label %31, label %32

31:                                               ; preds = %6
  store i32 0, ptr %7, align 4
  store i32 1, ptr %16, align 4
  br label %116

32:                                               ; preds = %6
  %33 = load ptr, ptr %15, align 8, !tbaa !45
  call void @BN_CTX_start(ptr noundef %33)
  call void @llvm.lifetime.start.p0(i64 4, ptr %17) #5
  store i32 0, ptr %17, align 4, !tbaa !22
  call void @llvm.lifetime.start.p0(i64 8, ptr %18) #5
  %34 = load ptr, ptr %8, align 8, !tbaa !25
  %35 = getelementptr inbounds nuw %struct.ssl_ecdh_ctx_st, ptr %34, i32 0, i32 0
  %36 = load ptr, ptr %35, align 8, !tbaa !27
  %37 = getelementptr inbounds nuw %struct.ssl_ecdh_method_st, ptr %36, i32 0, i32 0
  %38 = load i32, ptr %37, align 8, !tbaa !23
  %39 = call ptr @EC_GROUP_new_by_curve_name(i32 noundef %38)
  store ptr %39, ptr %18, align 8, !tbaa !49
  call void @llvm.lifetime.start.p0(i64 8, ptr %19) #5
  store ptr null, ptr %19, align 8, !tbaa !47
  call void @llvm.lifetime.start.p0(i64 8, ptr %20) #5
  store ptr null, ptr %20, align 8, !tbaa !47
  call void @llvm.lifetime.start.p0(i64 8, ptr %21) #5
  store ptr null, ptr %21, align 8, !tbaa !40
  %40 = load ptr, ptr %18, align 8, !tbaa !49
  %41 = icmp eq ptr %40, null
  br i1 %41, label %42, label %43

42:                                               ; preds = %32
  br label %108

43:                                               ; preds = %32
  %44 = load ptr, ptr %18, align 8, !tbaa !49
  %45 = call ptr @EC_POINT_new(ptr noundef %44)
  store ptr %45, ptr %19, align 8, !tbaa !47
  %46 = load ptr, ptr %18, align 8, !tbaa !49
  %47 = call ptr @EC_POINT_new(ptr noundef %46)
  store ptr %47, ptr %20, align 8, !tbaa !47
  %48 = load ptr, ptr %19, align 8, !tbaa !47
  %49 = icmp eq ptr %48, null
  br i1 %49, label %53, label %50

50:                                               ; preds = %43
  %51 = load ptr, ptr %20, align 8, !tbaa !47
  %52 = icmp eq ptr %51, null
  br i1 %52, label %53, label %54

53:                                               ; preds = %50, %43
  br label %108

54:                                               ; preds = %50
  %55 = load ptr, ptr %15, align 8, !tbaa !45
  %56 = call ptr @BN_CTX_get(ptr noundef %55)
  store ptr %56, ptr %22, align 8, !tbaa !43
  %57 = load ptr, ptr %22, align 8, !tbaa !43
  %58 = icmp eq ptr %57, null
  br i1 %58, label %59, label %60

59:                                               ; preds = %54
  br label %108

60:                                               ; preds = %54
  %61 = load ptr, ptr %18, align 8, !tbaa !49
  %62 = load ptr, ptr %19, align 8, !tbaa !47
  %63 = load ptr, ptr %12, align 8, !tbaa !40
  %64 = load i64, ptr %13, align 8, !tbaa !13
  %65 = load ptr, ptr %15, align 8, !tbaa !45
  %66 = call i32 @EC_POINT_oct2point(ptr noundef %61, ptr noundef %62, ptr noundef %63, i64 noundef %64, ptr noundef %65)
  %67 = icmp ne i32 %66, 0
  br i1 %67, label %70, label %68

68:                                               ; preds = %60
  %69 = load ptr, ptr %11, align 8, !tbaa !40
  store i8 50, ptr %69, align 1, !tbaa !52
  br label %108

70:                                               ; preds = %60
  %71 = load ptr, ptr %18, align 8, !tbaa !49
  %72 = load ptr, ptr %20, align 8, !tbaa !47
  %73 = load ptr, ptr %19, align 8, !tbaa !47
  %74 = load ptr, ptr %14, align 8, !tbaa !43
  %75 = load ptr, ptr %15, align 8, !tbaa !45
  %76 = call i32 @EC_POINT_mul(ptr noundef %71, ptr noundef %72, ptr noundef null, ptr noundef %73, ptr noundef %74, ptr noundef %75)
  %77 = icmp ne i32 %76, 0
  br i1 %77, label %78, label %85

78:                                               ; preds = %70
  %79 = load ptr, ptr %18, align 8, !tbaa !49
  %80 = load ptr, ptr %20, align 8, !tbaa !47
  %81 = load ptr, ptr %22, align 8, !tbaa !43
  %82 = load ptr, ptr %15, align 8, !tbaa !45
  %83 = call i32 @EC_POINT_get_affine_coordinates_GFp(ptr noundef %79, ptr noundef %80, ptr noundef %81, ptr noundef null, ptr noundef %82)
  %84 = icmp ne i32 %83, 0
  br i1 %84, label %86, label %85

85:                                               ; preds = %78, %70
  br label %108

86:                                               ; preds = %78
  %87 = load ptr, ptr %18, align 8, !tbaa !49
  %88 = call i32 @EC_GROUP_get_degree(ptr noundef %87)
  %89 = add i32 %88, 7
  %90 = udiv i32 %89, 8
  %91 = zext i32 %90 to i64
  store i64 %91, ptr %23, align 8, !tbaa !13
  %92 = load i64, ptr %23, align 8, !tbaa !13
  %93 = call noalias ptr @malloc(i64 noundef %92) #6
  store ptr %93, ptr %21, align 8, !tbaa !40
  %94 = load ptr, ptr %21, align 8, !tbaa !40
  %95 = icmp eq ptr %94, null
  br i1 %95, label %102, label %96

96:                                               ; preds = %86
  %97 = load ptr, ptr %21, align 8, !tbaa !40
  %98 = load i64, ptr %23, align 8, !tbaa !13
  %99 = load ptr, ptr %22, align 8, !tbaa !43
  %100 = call i32 @BN_bn2bin_padded(ptr noundef %97, i64 noundef %98, ptr noundef %99)
  %101 = icmp ne i32 %100, 0
  br i1 %101, label %103, label %102

102:                                              ; preds = %96, %86
  br label %108

103:                                              ; preds = %96
  %104 = load ptr, ptr %21, align 8, !tbaa !40
  %105 = load ptr, ptr %9, align 8, !tbaa !36
  store ptr %104, ptr %105, align 8, !tbaa !40
  %106 = load i64, ptr %23, align 8, !tbaa !13
  %107 = load ptr, ptr %10, align 8, !tbaa !38
  store i64 %106, ptr %107, align 8, !tbaa !13
  store ptr null, ptr %21, align 8, !tbaa !40
  store i32 1, ptr %17, align 4, !tbaa !22
  br label %108

108:                                              ; preds = %103, %102, %85, %68, %59, %53, %42
  %109 = load ptr, ptr %18, align 8, !tbaa !49
  call void @EC_GROUP_free(ptr noundef %109)
  %110 = load ptr, ptr %19, align 8, !tbaa !47
  call void @EC_POINT_free(ptr noundef %110)
  %111 = load ptr, ptr %20, align 8, !tbaa !47
  call void @EC_POINT_free(ptr noundef %111)
  %112 = load ptr, ptr %15, align 8, !tbaa !45
  call void @BN_CTX_end(ptr noundef %112)
  %113 = load ptr, ptr %15, align 8, !tbaa !45
  call void @BN_CTX_free(ptr noundef %113)
  %114 = load ptr, ptr %21, align 8, !tbaa !40
  call void @free(ptr noundef %114) #5
  %115 = load i32, ptr %17, align 4, !tbaa !22
  store i32 %115, ptr %7, align 4
  store i32 1, ptr %16, align 4
  call void @llvm.lifetime.end.p0(i64 8, ptr %21) #5
  call void @llvm.lifetime.end.p0(i64 8, ptr %20) #5
  call void @llvm.lifetime.end.p0(i64 8, ptr %19) #5
  call void @llvm.lifetime.end.p0(i64 8, ptr %18) #5
  call void @llvm.lifetime.end.p0(i64 4, ptr %17) #5
  br label %116

116:                                              ; preds = %108, %31
  call void @llvm.lifetime.end.p0(i64 8, ptr %15) #5
  call void @llvm.lifetime.end.p0(i64 8, ptr %14) #5
  %117 = load i32, ptr %7, align 4
  ret i32 %117
}