; Function Attrs: nounwind uwtable
define internal range(i32 0, 2) i32 @ssl_ec_point_compute_secret(ptr noundef readonly captures(none) %0, ptr noundef writeonly captures(none) %1, ptr noundef writeonly captures(none) %2, ptr noundef writeonly captures(none) initializes((0, 1)) %3, ptr noundef %4, i64 noundef %5) #3 {
  %7 = getelementptr inbounds nuw i8, ptr %0, i64 8
  %8 = load ptr, ptr %7, align 8, !tbaa !22
  store i8 80, ptr %3, align 1, !tbaa !26
  %9 = tail call ptr @BN_CTX_new() #8
  %10 = icmp eq ptr %9, null
  br i1 %10, label %42, label %11

11:                                               ; preds = %6
  tail call void @BN_CTX_start(ptr noundef nonnull %9) #8
  %12 = load ptr, ptr %0, align 8, !tbaa !18
  %13 = load i32, ptr %12, align 8, !tbaa !16
  %14 = tail call ptr @EC_GROUP_new_by_curve_name(i32 noundef %13) #8
  %15 = icmp eq ptr %14, null
  br i1 %15, label %41, label %16

16:                                               ; preds = %11
  %17 = tail call ptr @EC_POINT_new(ptr noundef nonnull %14) #8
  %18 = tail call ptr @EC_POINT_new(ptr noundef nonnull %14) #8
  %19 = icmp eq ptr %17, null
  %20 = icmp eq ptr %18, null
  %or.cond = select i1 %19, i1 true, i1 %20
  br i1 %or.cond, label %41, label %21

21:                                               ; preds = %16
  %22 = tail call ptr @BN_CTX_get(ptr noundef nonnull %9) #8
  %23 = icmp eq ptr %22, null
  br i1 %23, label %41, label %24

24:                                               ; preds = %21
  %25 = tail call i32 @EC_POINT_oct2point(ptr noundef nonnull %14, ptr noundef nonnull %17, ptr noundef %4, i64 noundef %5, ptr noundef nonnull %9) #8
  %.not = icmp eq i32 %25, 0
  br i1 %.not, label %26, label %27

26:                                               ; preds = %24
  store i8 50, ptr %3, align 1, !tbaa !26
  br label %41

27:                                               ; preds = %24
  %28 = tail call i32 @EC_POINT_mul(ptr noundef nonnull %14, ptr noundef nonnull %18, ptr noundef null, ptr noundef nonnull %17, ptr noundef %8, ptr noundef nonnull %9) #8
  %.not55 = icmp eq i32 %28, 0
  br i1 %.not55, label %41, label %29

29:                                               ; preds = %27
  %30 = tail call i32 @EC_POINT_get_affine_coordinates_GFp(ptr noundef nonnull %14, ptr noundef nonnull %18, ptr noundef nonnull %22, ptr noundef null, ptr noundef nonnull %9) #8
  %.not56 = icmp eq i32 %30, 0
  br i1 %.not56, label %41, label %31

31:                                               ; preds = %29
  %32 = tail call i32 @EC_GROUP_get_degree(ptr noundef nonnull %14) #8
  %33 = add i32 %32, 7
  %34 = lshr i32 %33, 3
  %35 = zext nneg i32 %34 to i64
  %36 = tail call noalias ptr @malloc(i64 noundef %35) #9
  %37 = icmp eq ptr %36, null
  br i1 %37, label %41, label %38

38:                                               ; preds = %31
  %39 = tail call i32 @BN_bn2bin_padded(ptr noundef nonnull %36, i64 noundef %35, ptr noundef nonnull %22) #8
  %.not57 = icmp eq i32 %39, 0
  br i1 %.not57, label %41, label %40

40:                                               ; preds = %38
  store ptr %36, ptr %1, align 8, !tbaa !27
  store i64 %35, ptr %2, align 8, !tbaa !29
  br label %41

41:                                               ; preds = %31, %38, %27, %29, %21, %16, %11, %40, %26
  %.048 = phi i32 [ 0, %11 ], [ 0, %16 ], [ 0, %21 ], [ 0, %31 ], [ 1, %40 ], [ 0, %38 ], [ 0, %29 ], [ 0, %27 ], [ 0, %26 ]
  %.047 = phi ptr [ null, %11 ], [ %17, %16 ], [ %17, %21 ], [ %17, %31 ], [ %17, %40 ], [ %17, %38 ], [ %17, %29 ], [ %17, %27 ], [ %17, %26 ]
  %.046 = phi ptr [ null, %11 ], [ %18, %16 ], [ %18, %21 ], [ %18, %31 ], [ %18, %40 ], [ %18, %38 ], [ %18, %29 ], [ %18, %27 ], [ %18, %26 ]
  %.045 = phi ptr [ null, %11 ], [ null, %16 ], [ null, %21 ], [ null, %31 ], [ null, %40 ], [ %36, %38 ], [ null, %29 ], [ null, %27 ], [ null, %26 ]
  tail call void @EC_GROUP_free(ptr noundef %14) #8
  tail call void @EC_POINT_free(ptr noundef %.047) #8
  tail call void @EC_POINT_free(ptr noundef %.046) #8
  tail call void @BN_CTX_end(ptr noundef nonnull %9) #8
  tail call void @BN_CTX_free(ptr noundef nonnull %9) #8
  tail call void @free(ptr noundef %.045) #8
  br label %42

42:                                               ; preds = %6, %41
  %.0 = phi i32 [ %.048, %41 ], [ 0, %6 ]
  ret i32 %.0
}